target datalayout = "e-m:e-p270:32:32-p271:32:32-p272:64:64-i64:64-i128:128-f80:128-n8:16:32:64-S128"
target triple = "x86_64-pc-linux-gnu"

@hf_mbim_nrtcws_config_mode = internal global i32 0, align 4
@hf_mbim_nrtcws_config_wlan_active = internal global i32 0, align 4
@hf_mbim_nrtcws_config_wlan_safe_rx = internal global i32 0, align 4
@hf_mbim_nrtcws_config_wlan_bandwidth = internal global i32 0, align 4
@hf_mbim_nrtcws_config_bt_active = internal global i32 0, align 4
@hf_mbim_nrtcws_config_bt_safe_rx = internal global i32 0, align 4

; Function Attrs: nounwind uwtable
define internal void @mbim_dissect_nrtcws_config(ptr noundef %0, ptr noundef %1, ptr noundef %2, i32 noundef %3, i32 noundef %4) #0 {
  %6 = alloca ptr, align 8
  %7 = alloca ptr, align 8
  %8 = alloca ptr, align 8
  %9 = alloca i32, align 4
  %10 = alloca i32, align 4
  store ptr %0, ptr %6, align 8
  store ptr %1, ptr %7, align 8
  store ptr %2, ptr %8, align 8
  store i32 %3, ptr %9, align 4
  store i32 %4, ptr %10, align 4
  %11 = load ptr, ptr %8, align 8
  %12 = load i32, ptr @hf_mbim_nrtcws_config_mode, align 4
  %13 = load ptr, ptr %6, align 8
  %14 = load i32, ptr %9, align 4
  %15 = call ptr @proto_tree_add_item(ptr noundef %11, i32 noundef %12, ptr noundef %13, i32 noundef %14, i32 noundef 2, i32 noundef -2147483648)
  %16 = load i32, ptr %9, align 4
  %17 = add i32 %16, 2
  store i32 %17, ptr %9, align 4
  %18 = load i32, ptr %10, align 4
  %19 = icmp ugt i32 %18, 2
  br i1 %19, label %20, label %54

20:                                               ; preds = %5
  %21 = load ptr, ptr %8, align 8
  %22 = load i32, ptr @hf_mbim_nrtcws_config_wlan_active, align 4
  %23 = load ptr, ptr %6, align 8
  %24 = load i32, ptr %9, align 4
  %25 = call ptr @proto_tree_add_item(ptr noundef %21, i32 noundef %22, ptr noundef %23, i32 noundef %24, i32 noundef 2, i32 noundef -2147483648)
  %26 = load i32, ptr %9, align 4
  %27 = add i32 %26, 2
  store i32 %27, ptr %9, align 4
  %28 = load ptr, ptr %8, align 8
  %29 = load i32, ptr @hf_mbim_nrtcws_config_wlan_safe_rx, align 4
  %30 = load ptr, ptr %6, align 8
  %31 = load i32, ptr %9, align 4
  %32 = call ptr @proto_tree_add_item(ptr noundef %28, i32 noundef %29, ptr noundef %30, i32 noundef %31, i32 noundef 2, i32 noundef -2147483648)
  %33 = load i32, ptr %9, align 4
  %34 = add i32 %33, 2
  store i32 %34, ptr %9, align 4
  %35 = load ptr, ptr %8, align 8
  %36 = load i32, ptr @hf_mbim_nrtcws_config_wlan_bandwidth, align 4
  %37 = load ptr, ptr %6, align 8
  %38 = load i32, ptr %9, align 4
  %39 = call ptr @proto_tree_add_item(ptr noundef %35, i32 noundef %36, ptr noundef %37, i32 noundef %38, i32 noundef 2, i32 noundef -2147483648)
  %40 = load i32, ptr %9, align 4
  %41 = add i32 %40, 2
  store i32 %41, ptr %9, align 4
  %42 = load ptr, ptr %8, align 8
  %43 = load i32, ptr @hf_mbim_nrtcws_config_bt_active, align 4
  %44 = load ptr, ptr %6, align 8
  %45 = load i32, ptr %9, align 4
  %46 = call ptr @proto_tree_add_item(ptr noundef %42, i32 noundef %43, ptr noundef %44, i32 noundef %45, i32 noundef 2, i32 noundef -2147483648)
  %47 = load i32, ptr %9, align 4
  %48 = add i32 %47, 2
  store i32 %48, ptr %9, align 4
  %49 = load ptr, ptr %8, align 8
  %50 = load i32, ptr @hf_mbim_nrtcws_config_bt_safe_rx, align 4
  %51 = load ptr, ptr %6, align 8
  %52 = load i32, ptr %9, align 4
  %53 = call ptr @proto_tree_add_item(ptr noundef %49, i32 noundef %50, ptr noundef %51, i32 noundef %52, i32 noundef 2, i32 noundef -2147483648)
  br label %54

54:                                               ; preds = %20, %5
  ret void
}