; Function Attrs: nounwind uwtable
define internal fastcc void @mbim_dissect_nrtcws_config(ptr noundef %0, ptr noundef %1, i32 noundef %2, i32 noundef %3) unnamed_addr #0 {
  %5 = load i32, ptr @hf_mbim_nrtcws_config_mode, align 4
  %6 = tail call ptr @proto_tree_add_item(ptr noundef %1, i32 noundef %5, ptr noundef %0, i32 noundef %2, i32 noundef 2, i32 noundef -2147483648) #10
  %7 = icmp ugt i32 %3, 2
  br i1 %7, label %8, label %24

8:                                                ; preds = %4
  %9 = add i32 %2, 2
  %10 = load i32, ptr @hf_mbim_nrtcws_config_wlan_active, align 4
  %11 = tail call ptr @proto_tree_add_item(ptr noundef %1, i32 noundef %10, ptr noundef %0, i32 noundef %9, i32 noundef 2, i32 noundef -2147483648) #10
  %12 = add i32 %2, 4
  %13 = load i32, ptr @hf_mbim_nrtcws_config_wlan_safe_rx, align 4
  %14 = tail call ptr @proto_tree_add_item(ptr noundef %1, i32 noundef %13, ptr noundef %0, i32 noundef %12, i32 noundef 2, i32 noundef -2147483648) #10
  %15 = add i32 %2, 6
  %16 = load i32, ptr @hf_mbim_nrtcws_config_wlan_bandwidth, align 4
  %17 = tail call ptr @proto_tree_add_item(ptr noundef %1, i32 noundef %16, ptr noundef %0, i32 noundef %15, i32 noundef 2, i32 noundef -2147483648) #10
  %18 = add i32 %2, 8
  %19 = load i32, ptr @hf_mbim_nrtcws_config_bt_active, align 4
  %20 = tail call ptr @proto_tree_add_item(ptr noundef %1, i32 noundef %19, ptr noundef %0, i32 noundef %18, i32 noundef 2, i32 noundef -2147483648) #10
  %21 = add i32 %2, 10
  %22 = load i32, ptr @hf_mbim_nrtcws_config_bt_safe_rx, align 4
  %23 = tail call ptr @proto_tree_add_item(ptr noundef %1, i32 noundef %22, ptr noundef %0, i32 noundef %21, i32 noundef 2, i32 noundef -2147483648) #10
  br label %24

24:                                               ; preds = %8, %4
  ret void
}